; Function Attrs: mustprogress uwtable
define void @_ZN6casadi2MX5solveERKS0_S2_RKNSt7__cxx1112basic_stringIcSt11char_traitsIcESaIcEEERKSt3mapIS8_NS_11GenericTypeESt4lessIS8_ESaISt4pairIS9_SC_EEE(ptr dead_on_unwind noalias writable sret(%"class.casadi::MX") align 8 %0, ptr noundef nonnull align 8 dereferenceable(8) %1, ptr noundef nonnull align 8 dereferenceable(8) %2, ptr noundef nonnull align 8 dereferenceable(32) %3, ptr noundef nonnull align 8 dereferenceable(48) %4) local_unnamed_addr #3 align 2 personality ptr @__gxx_personality_v0 {
  %6 = alloca %"class.casadi::Linsol", align 8
  %7 = alloca %"class.std::__cxx11::basic_string", align 8
  %8 = alloca %"class.std::allocator", align 1
  %9 = tail call noundef ptr @_ZNK6casadi12SharedObjectptEv(ptr noundef nonnull align 8 dereferenceable(8) %1)
  %10 = getelementptr inbounds i8, ptr %9, i64 56
  %11 = tail call noundef zeroext i1 @_ZNK6casadi8Sparsity14is_orthonormalEb(ptr noundef nonnull align 8 dereferenceable(8) %10, i1 noundef zeroext false)
  br i1 %11, label %12, label %13

12:                                               ; preds = %5
  tail call void @_ZN6casadi2MX5solveERKS0_S2_(ptr dead_on_unwind writable sret(%"class.casadi::MX") align 8 %0, ptr noundef nonnull align 8 dereferenceable(8) %1, ptr noundef nonnull align 8 dereferenceable(8) %2)
  br label %28

13:                                               ; preds = %5
  call void @_ZNSaIcEC1Ev(ptr noundef nonnull align 1 dereferenceable(1) %8) #27
  %14 = invoke noundef ptr @_ZNSt7__cxx1112basic_stringIcSt11char_traitsIcESaIcEE13_M_local_dataEv(ptr noundef nonnull align 8 dereferenceable(32) %7)
          to label %.noexc unwind label %22

.noexc:                                           ; preds = %13
  invoke void @_ZNSt7__cxx1112basic_stringIcSt11char_traitsIcESaIcEE12_Alloc_hiderC1EPcRKS3_(ptr noundef nonnull align 8 dereferenceable(8) %7, ptr noundef %14, ptr noundef nonnull align 1 dereferenceable(1) %8)
          to label %.noexc14 unwind label %22

.noexc14:                                         ; preds = %.noexc
  invoke void @_ZNSt7__cxx1112basic_stringIcSt11char_traitsIcESaIcEE12_M_constructIPKcEEvT_S8_St20forward_iterator_tag(ptr noundef nonnull align 8 dereferenceable(32) %7, ptr noundef nonnull @.str.353, ptr noundef nonnull getelementptr inbounds ([10 x i8], ptr @.str.353, i64 0, i64 9))
          to label %_ZNSt7__cxx1112basic_stringIcSt11char_traitsIcESaIcEEC2IS3_EEPKcRKS3_.exit unwind label %15

15:                                               ; preds = %.noexc14
  %16 = landingpad { ptr, i32 }
          cleanup
  call void @_ZNSaIcED2Ev(ptr noundef nonnull align 1 dereferenceable(1) %7) #27
  br label %.body

_ZNSt7__cxx1112basic_stringIcSt11char_traitsIcESaIcEEC2IS3_EEPKcRKS3_.exit: ; preds = %.noexc14
  %17 = invoke noundef ptr @_ZNK6casadi12SharedObjectptEv(ptr noundef nonnull align 8 dereferenceable(8) %1)
          to label %18 unwind label %24

18:                                               ; preds = %_ZNSt7__cxx1112basic_stringIcSt11char_traitsIcESaIcEEC2IS3_EEPKcRKS3_.exit
  %19 = getelementptr inbounds i8, ptr %17, i64 56
  invoke void @_ZN6casadi6LinsolC1ERKNSt7__cxx1112basic_stringIcSt11char_traitsIcESaIcEEES8_RKNS_8SparsityERKSt3mapIS6_NS_11GenericTypeESt4lessIS6_ESaISt4pairIS7_SD_EEE(ptr noundef nonnull align 8 dereferenceable(8) %6, ptr noundef nonnull align 8 dereferenceable(32) %7, ptr noundef nonnull align 8 dereferenceable(32) %3, ptr noundef nonnull align 8 dereferenceable(8) %19, ptr noundef nonnull align 8 dereferenceable(48) %4)
          to label %20 unwind label %24

20:                                               ; preds = %18
  call void @_ZNSt7__cxx1112basic_stringIcSt11char_traitsIcESaIcEED1Ev(ptr noundef nonnull align 8 dereferenceable(32) %7) #27
  call void @_ZNSaIcED1Ev(ptr noundef nonnull align 1 dereferenceable(1) %8) #27
  invoke void @_ZNK6casadi6Linsol5solveERKNS_2MXES3_b(ptr dead_on_unwind writable sret(%"class.casadi::MX") align 8 %0, ptr noundef nonnull align 8 dereferenceable(8) %6, ptr noundef nonnull align 8 dereferenceable(8) %1, ptr noundef nonnull align 8 dereferenceable(8) %2, i1 noundef zeroext false)
          to label %21 unwind label %26

21:                                               ; preds = %20
  call void @_ZN6casadi12SharedObjectD2Ev(ptr noundef nonnull align 8 dereferenceable(8) %6) #27
  br label %28

22:                                               ; preds = %.noexc, %13
  %23 = landingpad { ptr, i32 }
          cleanup
  br label %.body

24:                                               ; preds = %_ZNSt7__cxx1112basic_stringIcSt11char_traitsIcESaIcEEC2IS3_EEPKcRKS3_.exit, %18
  %25 = landingpad { ptr, i32 }
          cleanup
  call void @_ZNSt7__cxx1112basic_stringIcSt11char_traitsIcESaIcEED1Ev(ptr noundef nonnull align 8 dereferenceable(32) %7) #27
  br label %.body

.body:                                            ; preds = %22, %15, %24
  %.pn = phi { ptr, i32 } [ %25, %24 ], [ %23, %22 ], [ %16, %15 ]
  call void @_ZNSaIcED1Ev(ptr noundef nonnull align 1 dereferenceable(1) %8) #27
  br label %29

26:                                               ; preds = %20
  %27 = landingpad { ptr, i32 }
          cleanup
  call void @_ZN6casadi12SharedObjectD2Ev(ptr noundef nonnull align 8 dereferenceable(8) %6) #27
  br label %29

28:                                               ; preds = %21, %12
  ret void

29:                                               ; preds = %26, %.body
  %.pn12 = phi { ptr, i32 } [ %27, %26 ], [ %.pn, %.body ]
  resume { ptr, i32 } %.pn12
}